; Function Attrs: mustprogress uwtable
define noalias ptr @lean_io_wait(ptr noundef %0, ptr noundef readnone captures(none) %1) local_unnamed_addr #0 {
  %3 = tail call ptr @lean_task_get(ptr noundef %0)
  %4 = ptrtoint ptr %3 to i64
  %5 = and i64 %4, 1
  %.not.i = icmp eq i64 %5, 0
  br i1 %.not.i, label %6, label %_ZL8lean_incP11lean_object.exit.i

6:                                                ; preds = %2
  %.val.i.i = load i32, ptr %3, align 4, !tbaa !7
  %7 = icmp sgt i32 %.val.i.i, 0
  br i1 %7, label %8, label %10, !prof !10

8:                                                ; preds = %6
  %9 = add nuw nsw i32 %.val.i.i, 1
  store i32 %9, ptr %3, align 4, !tbaa !7
  br label %_ZL8lean_incP11lean_object.exit.i

10:                                               ; preds = %6
  %.not.i4.i = icmp eq i32 %.val.i.i, 0
  br i1 %.not.i4.i, label %_ZL8lean_incP11lean_object.exit.i, label %11

11:                                               ; preds = %10
  tail call void @lean_inc_ref_cold(ptr noundef nonnull %3)
  br label %_ZL8lean_incP11lean_object.exit.i

_ZL8lean_incP11lean_object.exit.i:                ; preds = %11, %10, %8, %2
  %12 = ptrtoint ptr %0 to i64
  %13 = and i64 %12, 1
  %.not5.i = icmp eq i64 %13, 0
  br i1 %.not5.i, label %14, label %_ZL17lean_task_get_ownP11lean_object.exit

14:                                               ; preds = %_ZL8lean_incP11lean_object.exit.i
  %15 = load i32, ptr %0, align 4, !tbaa !7
  %16 = icmp sgt i32 %15, 1
  br i1 %16, label %17, label %19, !prof !10

17:                                               ; preds = %14
  %18 = add nsw i32 %15, -1
  store i32 %18, ptr %0, align 4, !tbaa !7
  br label %_ZL17lean_task_get_ownP11lean_object.exit

19:                                               ; preds = %14
  %.not.i.i = icmp eq i32 %15, 0
  br i1 %.not.i.i, label %_ZL17lean_task_get_ownP11lean_object.exit, label %20

20:                                               ; preds = %19
  tail call void @lean_dec_ref_cold(ptr noundef nonnull %0)
  br label %_ZL17lean_task_get_ownP11lean_object.exit

_ZL17lean_task_get_ownP11lean_object.exit:        ; preds = %_ZL8lean_incP11lean_object.exit.i, %17, %19, %20
  tail call void @lean_inc_heartbeat()
  %21 = tail call noalias ptr @mi_malloc_small(i64 noundef 24) #27
  %22 = icmp eq ptr %21, null
  br i1 %22, label %23, label %_ZN4lean15io_result_mk_okEP11lean_object.exit

23:                                               ; preds = %_ZL17lean_task_get_ownP11lean_object.exit
  tail call void @lean_internal_panic_out_of_memory() #28
  unreachable

_ZN4lean15io_result_mk_okEP11lean_object.exit:    ; preds = %_ZL17lean_task_get_ownP11lean_object.exit
  %24 = getelementptr inbounds nuw i8, ptr %21, i64 4
  store i32 1, ptr %21, align 4, !tbaa !7
  store i32 131096, ptr %24, align 4
  %25 = getelementptr inbounds nuw i8, ptr %21, i64 8
  store ptr %3, ptr %25, align 8, !tbaa !3
  %26 = getelementptr inbounds nuw i8, ptr %21, i64 16
  store ptr inttoptr (i64 1 to ptr), ptr %26, align 8, !tbaa !3
  ret ptr %21
}